; Function Attrs: mustprogress uwtable
define dso_local void @_ZN5vcpkg3msg14format_warningERKNS_15LocalizedStringE(ptr dead_on_unwind noalias writable sret(%"struct.vcpkg::LocalizedString") align 8 %0, ptr noundef nonnull align 8 dereferenceable(32) %1) local_unnamed_addr #3 personality ptr @__gxx_personality_v0 {
  %3 = alloca %"class.std::allocator", align 1
  %4 = alloca %"struct.vcpkg::LocalizedString", align 8
  call void @llvm.lifetime.start.p0(i64 1, ptr nonnull %3), !noalias !93
  call void @_ZNSaIcEC1Ev(ptr noundef nonnull align 1 dereferenceable(1) %3) #25, !noalias !93
  invoke void @_ZNSt7__cxx1112basic_stringIcSt11char_traitsIcESaIcEEC1EPKcmRKS3_(ptr noundef nonnull align 8 dereferenceable(32) %4, ptr noundef nonnull @.str.83, i64 noundef 9, ptr noundef nonnull align 1 dereferenceable(1) %3)
          to label %_ZN5vcpkg14warning_prefixEv.exit unwind label %5

common.resume:                                    ; preds = %8, %5
  %common.resume.op = phi { ptr, i32 } [ %6, %5 ], [ %9, %8 ]
  resume { ptr, i32 } %common.resume.op

5:                                                ; preds = %2
  %6 = landingpad { ptr, i32 }
          cleanup
  call void @_ZNSaIcED1Ev(ptr noundef nonnull align 1 dereferenceable(1) %3) #25
  br label %common.resume

_ZN5vcpkg14warning_prefixEv.exit:                 ; preds = %2
  call void @_ZNSaIcED1Ev(ptr noundef nonnull align 1 dereferenceable(1) %3) #25
  call void @llvm.lifetime.end.p0(i64 1, ptr nonnull %3), !noalias !93
  %7 = invoke noundef nonnull align 8 dereferenceable(32) ptr @_ZNSt7__cxx1112basic_stringIcSt11char_traitsIcESaIcEE6appendERKS4_(ptr noundef nonnull align 8 dereferenceable(32) %4, ptr noundef nonnull align 8 dereferenceable(32) %1)
          to label %_ZNO5vcpkg15LocalizedString6appendERKS0_.exit unwind label %8

_ZNO5vcpkg15LocalizedString6appendERKS0_.exit:    ; preds = %_ZN5vcpkg14warning_prefixEv.exit
  call void @_ZNSt7__cxx1112basic_stringIcSt11char_traitsIcESaIcEEC1EOS4_(ptr noundef nonnull align 8 dereferenceable(32) %0, ptr noundef nonnull align 8 dereferenceable(32) %4) #25
  call void @_ZNSt7__cxx1112basic_stringIcSt11char_traitsIcESaIcEED1Ev(ptr noundef nonnull align 8 dereferenceable(32) %4) #25
  ret void

8:                                                ; preds = %_ZN5vcpkg14warning_prefixEv.exit
  %9 = landingpad { ptr, i32 }
          cleanup
  call void @_ZNSt7__cxx1112basic_stringIcSt11char_traitsIcESaIcEED1Ev(ptr noundef nonnull align 8 dereferenceable(32) %4) #25
  br label %common.resume
}